target datalayout = "e-m:e-p270:32:32-p271:32:32-p272:64:64-i64:64-i128:128-f80:128-n8:16:32:64-S128"
target triple = "x86_64-pc-linux-gnu"

%struct.rb_const_entry_struct = type { i32, i32, i64, i64 }

; Function Attrs: nounwind sspstrong uwtable
define internal i32 @rb_local_constants_i(i64 noundef %0, i64 noundef %1, ptr noundef %2) #0 {
  %4 = alloca i64, align 8
  %5 = alloca i64, align 8
  %6 = alloca ptr, align 8
  %7 = alloca i64, align 8
  store i64 %0, ptr %4, align 8, !tbaa !14
  store i64 %1, ptr %5, align 8, !tbaa !14
  store ptr %2, ptr %6, align 8, !tbaa !40
  %8 = load i64, ptr %4, align 8, !tbaa !14
  %9 = call i32 @rb_is_const_id(i64 noundef %8) #32
  %10 = icmp ne i32 %9, 0
  br i1 %10, label %11, label %41

11:                                               ; preds = %3
  %12 = load i64, ptr %5, align 8, !tbaa !14
  %13 = inttoptr i64 %12 to ptr
  %14 = getelementptr inbounds nuw %struct.rb_const_entry_struct, ptr %13, i32 0, i32 0
  %15 = load i32, ptr %14, align 8, !tbaa !161
  %16 = and i32 %15, 255
  %17 = icmp eq i32 %16, 1
  br i1 %17, label %41, label %18

18:                                               ; preds = %11
  %19 = load ptr, ptr %6, align 8, !tbaa !40
  %20 = ptrtoint ptr %19 to i64
  %21 = load i64, ptr %4, align 8, !tbaa !14
  %22 = call i1 @llvm.is.constant.i64(i64 %21)
  br i1 %22, label %23, label %34

23:                                               ; preds = %18
  %24 = load i64, ptr %4, align 8, !tbaa !14
  %25 = and i64 %24, 1
  %26 = icmp ne i64 %25, 0
  br i1 %26, label %30, label %27

27:                                               ; preds = %23
  %28 = load i64, ptr %4, align 8, !tbaa !14
  %29 = icmp ugt i64 %28, 170
  br i1 %29, label %34, label %30

30:                                               ; preds = %27, %23
  %31 = load i64, ptr %4, align 8, !tbaa !14
  %32 = shl i64 %31, 8
  %33 = or i64 %32, 12
  br label %37

34:                                               ; preds = %27, %18
  %35 = load i64, ptr %4, align 8, !tbaa !14
  %36 = call i64 @rb_id2sym(i64 noundef %35)
  br label %37

37:                                               ; preds = %34, %30
  %38 = phi i64 [ %33, %30 ], [ %36, %34 ]
  store i64 %38, ptr %7, align 8, !tbaa !14
  %39 = load i64, ptr %7, align 8, !tbaa !14
  %40 = call i64 @rb_ary_push(i64 noundef %20, i64 noundef %39)
  br label %41

41:                                               ; preds = %37, %11, %3
  ret i32 0
}