; Function Attrs: nounwind sspstrong uwtable
define internal noundef i32 @rb_local_constants_i(i64 noundef %0, i64 noundef %1, ptr noundef %2) #0 {
  %4 = tail call i32 @rb_is_const_id(i64 noundef %0) #32
  %.not = icmp eq i32 %4, 0
  br i1 %.not, label %14, label %5

5:                                                ; preds = %3
  %6 = inttoptr i64 %1 to ptr
  %7 = load i32, ptr %6, align 8, !tbaa !187
  %8 = and i32 %7, 255
  %9 = icmp eq i32 %8, 1
  br i1 %9, label %14, label %10

10:                                               ; preds = %5
  %11 = ptrtoint ptr %2 to i64
  %12 = tail call i64 @rb_id2sym(i64 noundef %0) #27
  %13 = tail call i64 @rb_ary_push(i64 noundef %11, i64 noundef %12) #27
  br label %14

14:                                               ; preds = %10, %5, %3
  ret i32 0
}